; Function Attrs: nounwind uwtable
define internal zeroext i1 @HIDAPI_DriverSteam_SetSensorsEnabled(ptr noundef readonly captures(none) %0, ptr readnone captures(none) %1, i1 noundef zeroext %2) #0 {
  %4 = alloca [20 x i8], align 16
  %5 = alloca [65 x i8], align 16
  %6 = zext i1 %2 to i8
  %7 = getelementptr inbounds nuw i8, ptr %0, i64 112
  %8 = load ptr, ptr %7, align 8
  call void @llvm.lifetime.start.p0(i64 65, ptr nonnull %5) #9
  call void @llvm.memset.p0.i64(ptr noundef nonnull align 16 dereferenceable(65) %5, i8 0, i64 65, i1 false)
  %9 = getelementptr inbounds nuw i8, ptr %5, i64 1
  store i8 -121, ptr %9, align 1
  %spec.select = select i1 %2, i8 24, i8 0
  %10 = getelementptr inbounds nuw i8, ptr %5, i64 3
  store i8 48, ptr %10, align 1
  %11 = getelementptr inbounds nuw i8, ptr %5, i64 4
  store i8 %spec.select, ptr %11, align 4
  %12 = getelementptr inbounds nuw i8, ptr %5, i64 2
  store i8 3, ptr %12, align 2
  %13 = getelementptr inbounds nuw i8, ptr %0, i64 84
  %14 = load i8, ptr %13, align 4, !range !3, !noundef !4
  %15 = trunc nuw i8 %14 to i1
  br i1 %15, label %.lr.ph.i, label %.preheader.i

.preheader.i:                                     ; preds = %3
  %16 = getelementptr inbounds nuw i8, ptr %0, i64 128
  br label %23

.lr.ph.i:                                         ; preds = %3
  call void @llvm.lifetime.start.p0(i64 20, ptr nonnull %4) #9
  %17 = getelementptr inbounds nuw i8, ptr %4, i64 1
  %18 = getelementptr inbounds nuw i8, ptr %4, i64 2
  %19 = getelementptr inbounds nuw i8, ptr %0, i64 128
  call void @llvm.memset.p0.i64(ptr noundef nonnull align 16 dereferenceable(20) %4, i8 0, i64 20, i1 false)
  store i8 3, ptr %4, align 16
  store i8 -64, ptr %17, align 1
  call void @llvm.memcpy.p0.p0.i64(ptr noundef nonnull align 2 dereferenceable(5) %18, ptr noundef nonnull align 1 dereferenceable(5) %9, i64 5, i1 false)
  %20 = load ptr, ptr %19, align 8
  %21 = call i32 @SDL_hid_send_feature_report_REAL(ptr noundef %20, ptr noundef nonnull %4, i64 noundef 20) #9
  call void @llvm.lifetime.end.p0(i64 20, ptr nonnull %4) #9
  %22 = icmp slt i32 %21, 0
  br i1 %22, label %SetFeatureReport.exit.thread, label %SetFeatureReport.exit.thread17

23:                                               ; preds = %27, %.preheader.i
  %.034.i = phi i32 [ 0, %.preheader.i ], [ %28, %27 ]
  %24 = load ptr, ptr %16, align 8
  %25 = call i32 @SDL_hid_send_feature_report_REAL(ptr noundef %24, ptr noundef nonnull %5, i64 noundef 65) #9
  %26 = icmp sgt i32 %25, -1
  br i1 %26, label %SetFeatureReport.exit.thread17, label %27

27:                                               ; preds = %23
  call void @SDL_DelayNS_REAL(i64 noundef 500000) #9
  %28 = add nuw nsw i32 %.034.i, 1
  %exitcond.not.i = icmp eq i32 %28, 50
  br i1 %exitcond.not.i, label %SetFeatureReport.exit.thread, label %23, !llvm.loop !5

SetFeatureReport.exit.thread:                     ; preds = %27, %.lr.ph.i
  %29 = call zeroext i1 (ptr, ...) @SDL_SetError_REAL(ptr noundef nonnull @.str.15) #9
  br label %31

SetFeatureReport.exit.thread17:                   ; preds = %23, %.lr.ph.i
  %30 = getelementptr inbounds nuw i8, ptr %8, i64 9
  store i8 %6, ptr %30, align 1
  br label %31

31:                                               ; preds = %SetFeatureReport.exit.thread17, %SetFeatureReport.exit.thread
  %.015 = phi i1 [ %29, %SetFeatureReport.exit.thread ], [ true, %SetFeatureReport.exit.thread17 ]
  call void @llvm.lifetime.end.p0(i64 65, ptr nonnull %5) #9
  ret i1 %.015
}